target datalayout = "e-m:e-p270:32:32-p271:32:32-p272:64:64-i64:64-i128:128-f80:128-n8:16:32:64-S128"
target triple = "x86_64-pc-linux-gnu"

%struct.node_state_flags_t = type { i32, ptr }

; Function Attrs: nounwind uwtable
define dso_local zeroext i1 @valid_base_state(i32 noundef %0) #0 {
  %2 = alloca i1, align 1
  %3 = alloca i32, align 4
  %4 = alloca i32, align 4
  %5 = alloca i32, align 4
  store i32 %0, ptr %3, align 4
  call void @llvm.lifetime.start.p0(i64 4, ptr %4) #11
  store i32 0, ptr %4, align 4
  br label %6

6:                                                ; preds = %22, %1
  %7 = load i32, ptr %4, align 4
  %8 = sext i32 %7 to i64
  %9 = icmp ult i64 %8, 7
  br i1 %9, label %11, label %10

10:                                               ; preds = %6
  store i32 2, ptr %5, align 4
  br label %25

11:                                               ; preds = %6
  %12 = load i32, ptr %4, align 4
  %13 = sext i32 %12 to i64
  %14 = getelementptr inbounds [7 x %struct.node_state_flags_t], ptr @node_states, i64 0, i64 %13
  %15 = getelementptr inbounds nuw %struct.node_state_flags_t, ptr %14, i32 0, i32 0
  %16 = load i32, ptr %15, align 16
  %17 = load i32, ptr %3, align 4
  %18 = and i32 %17, 15
  %19 = icmp eq i32 %16, %18
  br i1 %19, label %20, label %21

20:                                               ; preds = %11
  store i1 true, ptr %2, align 1
  store i32 1, ptr %5, align 4
  br label %25

21:                                               ; preds = %11
  br label %22

22:                                               ; preds = %21
  %23 = load i32, ptr %4, align 4
  %24 = add nsw i32 %23, 1
  store i32 %24, ptr %4, align 4
  br label %6, !llvm.loop !12

25:                                               ; preds = %20, %10
  call void @llvm.lifetime.end.p0(i64 4, ptr %4) #11
  %26 = load i32, ptr %5, align 4
  switch i32 %26, label %30 [
    i32 2, label %27
    i32 1, label %28
  ]

27:                                               ; preds = %25
  store i1 false, ptr %2, align 1
  br label %28

28:                                               ; preds = %27, %25
  %29 = load i1, ptr %2, align 1
  ret i1 %29

30:                                               ; preds = %25
  unreachable
}