; Function Attrs: nofree norecurse nosync nounwind memory(none) uwtable
define dso_local zeroext i1 @valid_base_state(i32 noundef %0) #2 {
  %2 = and i32 %0, 15
  br label %3

3:                                                ; preds = %3, %1
  %indvars.iv = phi i64 [ 0, %1 ], [ %indvars.iv.next, %3 ]
  %4 = getelementptr inbounds nuw [7 x %struct.node_state_flags_t], ptr @node_states, i64 0, i64 %indvars.iv
  %5 = load i32, ptr %4, align 16
  %6 = icmp eq i32 %5, %2
  %indvars.iv.next = add nuw nsw i64 %indvars.iv, 1
  %exitcond.not = icmp eq i64 %indvars.iv.next, 7
  %or.cond = select i1 %6, i1 true, i1 %exitcond.not
  br i1 %or.cond, label %7, label %3, !llvm.loop !12

7:                                                ; preds = %3
  ret i1 %6
}